; Function Attrs: mustprogress uwtable
define noundef ptr @_ZN3net10SpdyFramer15GetHpackEncoderEv(ptr noundef nonnull align 8 captures(none) dereferenceable(259) %0) local_unnamed_addr #0 align 2 personality ptr @__gxx_personality_v0 {
  %2 = getelementptr inbounds nuw i8, ptr %0, i64 160
  %3 = load ptr, ptr %2, align 8, !tbaa !104
  %4 = icmp eq ptr %3, null
  br i1 %4, label %5, label %_ZNSt10unique_ptrIN3net12HpackEncoderESt14default_deleteIS1_EE5resetEPS1_.exit

5:                                                ; preds = %1
  %6 = tail call noalias noundef nonnull dereferenceable(352) ptr @_Znwm(i64 noundef 352) #29
  %7 = invoke noundef nonnull align 8 dereferenceable(100) ptr @_ZN3net23ObtainHpackHuffmanTableEv()
          to label %8 unwind label %11

8:                                                ; preds = %5
  invoke void @_ZN3net12HpackEncoderC1ERKNS_17HpackHuffmanTableE(ptr noundef nonnull align 8 dereferenceable(346) %6, ptr noundef nonnull align 8 dereferenceable(100) %7)
          to label %9 unwind label %11

9:                                                ; preds = %8
  %10 = load ptr, ptr %2, align 8, !tbaa !104
  store ptr %6, ptr %2, align 8, !tbaa !104
  %.not.i.i = icmp eq ptr %10, null
  br i1 %.not.i.i, label %_ZNSt10unique_ptrIN3net12HpackEncoderESt14default_deleteIS1_EE5resetEPS1_.exit, label %_ZNKSt14default_deleteIN3net12HpackEncoderEEclEPS1_.exit.i.i

_ZNKSt14default_deleteIN3net12HpackEncoderEEclEPS1_.exit.i.i: ; preds = %9
  tail call void @_ZN3net12HpackEncoderD1Ev(ptr noundef nonnull align 8 dereferenceable(346) %10) #25
  tail call void @_ZdlPv(ptr noundef nonnull %10) #26
  %.pre = load ptr, ptr %2, align 8, !tbaa !104
  br label %_ZNSt10unique_ptrIN3net12HpackEncoderESt14default_deleteIS1_EE5resetEPS1_.exit

11:                                               ; preds = %8, %5
  %12 = landingpad { ptr, i32 }
          cleanup
  tail call void @_ZdlPv(ptr noundef nonnull %6) #26
  resume { ptr, i32 } %12

_ZNSt10unique_ptrIN3net12HpackEncoderESt14default_deleteIS1_EE5resetEPS1_.exit: ; preds = %_ZNKSt14default_deleteIN3net12HpackEncoderEEclEPS1_.exit.i.i, %9, %1
  %13 = phi ptr [ %.pre, %_ZNKSt14default_deleteIN3net12HpackEncoderEEclEPS1_.exit.i.i ], [ %6, %9 ], [ %3, %1 ]
  ret ptr %13
}